Certificate:
    Data:
        Version: 3 (0x2)
        Serial Number:
            42:20:74:c8:5f:33:5e:4c:84:72:bf:54:72:31:49:36:0f:ff:2c:37
        Signature Algorithm: sha256WithRSAEncryption
        Issuer: C = BR, ST = SC, L = Florianopolis, O = UFSC, CN = Rato
        Validity
            Not Before: Nov 11 09:11:11 2011 GMT
            Not After : Nov 11 09:11:11 2069 GMT
        Subject: C = BR, ST = SC, L = Florianopolis, O = UFSC, CN = Rato
        Subject Public Key Info:
            Public Key Algorithm: rsaEncryption
                Public-Key: (4096 bit)
                Modulus:
                    00:c8:35:b3:2d:bd:21:6e:d4:5a:3a:b8:7d:7e:00:
                    8c:a2:f3:0e:28:f3:33:25:9b:04:a3:fe:c0:9c:16:
                    b3:90:c7:f5:de:e2:5c:e0:7c:22:b1:4f:a3:3d:76:
                    54:fc:ab:92:6c:b7:5c:77:cd:07:2c:13:9f:e3:8f:
                    ff:e1:e8:e3:99:d1:30:13:30:7b:a9:a4:3b:9a:1c:
                    c7:e7:53:e5:42:30:31:69:68:14:f1:51:3f:59:5c:
                    c7:ce:bf:dd:c3:35:6c:69:ec:b0:4b:20:f0:7a:1b:
                    c7:ed:72:ad:46:ba:b9:9d:1a:88:17:d3:cc:4d:32:
                    81:0b:f5:f6:68:8a:c2:11:6e:bc:7d:ec:6f:0f:d1:
                    72:11:53:93:ee:48:15:db:e0:97:ee:27:3d:fe:49:
                    cb:0c:46:82:f2:b0:b0:03:13:2a:fc:cd:a2:d3:95:
                    d7:84:11:2a:94:51:71:c9:54:d9:bd:0c:f8:1e:ef:
                    ef:8f:51:1c:42:eb:8f:72:e7:e6:99:4d:2e:a0:b3:
                    bb:f0:83:c2:e3:f9:e3:5d:86:2e:6a:69:c2:0b:e3:
                    7c:88:7c:63:3c:76:1f:fc:fc:91:e2:1d:dc:82:3e:
                    51:09:c6:e2:64:2f:e0:d3:ab:4c:92:f5:15:16:aa:
                    d9:0e:22:fd:be:05:f9:41:f7:53:74:d8:b4:cb:f5:
                    41:74:3e:84:b6:01:b6:e8:33:8a:a1:7d:88:4c:ab:
                    04:c6:80:0d:fb:4f:46:9e:ab:c0:bf:d4:fb:2b:53:
                    ca:66:88:cf:af:52:8a:5a:2a:ea:96:ed:18:b9:b1:
                    bb:a9:70:ef:ff:79:af:66:16:ad:b4:47:af:5d:9d:
                    3f:37:4a:37:12:53:b6:b7:ce:51:70:7e:d8:92:c0:
                    62:b4:ab:b6:96:e7:f8:8c:29:e7:e2:f9:f4:e1:42:
                    4c:3e:c7:fd:91:2b:c5:58:8b:ef:60:3f:83:5b:33:
                    4f:37:dd:26:4c:43:06:f0:2b:f7:8a:0e:1b:bc:e2:
                    44:6b:83:27:bd:e3:1d:1a:7b:0d:e4:f1:1e:da:fc:
                    c8:24:cc:59:34:a5:ec:ce:03:f5:dd:27:1a:d4:70:
                    28:86:c5:ea:b5:25:a7:5e:bf:d0:44:72:62:48:08:
                    f4:2c:cb:b6:7b:c7:44:ed:f7:7e:b8:7c:b2:ff:d0:
                    f2:5c:37:ae:d6:23:30:8d:29:0b:2b:4f:88:80:c7:
                    57:94:53:a2:82:82:78:34:57:de:80:10:6d:8c:51:
                    1d:2b:db:8b:2b:e0:8a:9e:13:80:c0:07:80:82:fb:
                    71:1f:3f:e5:86:06:67:cc:24:54:d1:42:68:a7:14:
                    2c:09:f0:42:f5:bb:71:32:aa:5e:5d:6e:6d:d8:18:
                    8b:14:63
                Exponent: 65537 (0x10001)
        X509v3 extensions:
            1.2.3.4.5.6.7.8.9: 
                .7https://pbad.labsec.ufsc.br/catch-me-if-you-can/me.jpeg
            1.8.9.6.5.4.3.2.1: 
                ..Norma Fisher
            X509v3 Subject Key Identifier: 
                25:D2:8A:5B:A5:82:0A:35:0F:E3:2D:EB:D8:F1:C3:D3:8F:38:66:7F
    Signature Algorithm: sha256WithRSAEncryption
    Signature Value:
        4d:26:34:06:7c:ac:c4:cd:53:6d:a9:08:d2:aa:24:41:f9:8b:
        fb:de:94:f2:ea:55:67:30:6a:09:2e:cb:6b:61:ee:c4:37:a4:
        9c:49:5e:04:58:ff:a7:33:4a:a5:e6:36:8b:e7:f7:8b:57:dc:
        51:b7:e4:03:12:01:a2:5b:17:87:2a:4d:97:2d:ae:7d:32:10:
        3d:78:0e:bc:b3:fa:d2:53:0a:43:69:cc:66:79:fc:a2:c2:3b:
        14:ba:34:0c:8c:74:61:3e:a1:61:51:1e:6c:e5:47:5a:73:3d:
        c2:4b:95:db:a9:5a:fb:11:df:93:49:e3:16:84:f8:87:e7:12:
        50:f8:1d:8a:dc:f3:8b:ba:9c:3e:b4:d0:da:f0:23:d0:0c:30:
        09:b2:01:6b:79:4d:82:a4:52:a5:35:f9:cf:e4:26:7c:23:a5:
        81:d7:a4:83:94:0e:b6:f5:e5:2c:28:38:9c:aa:a4:54:c8:30:
        7e:96:66:17:79:0b:b9:94:83:ef:19:62:6c:87:4a:7f:86:e8:
        a6:bf:4f:cf:dc:9e:f2:62:c5:52:80:0b:17:71:be:d8:c5:81:
        bc:e1:b2:ba:1b:75:81:b4:1e:02:12:ad:5a:af:33:f6:b1:b9:
        ec:f3:7e:5b:36:e6:cd:3c:4b:a2:76:7d:f4:58:d6:6b:42:7e:
        ee:9a:e4:7a:d7:44:e9:77:41:7c:39:ad:33:06:b8:e6:b1:ca:
        a8:d8:6e:98:c9:24:6a:b0:31:d1:83:af:31:d7:dc:ef:80:eb:
        ec:90:72:fa:ea:4f:b2:7b:93:82:df:26:02:15:75:ba:ef:d9:
        50:42:c1:55:d5:e8:80:85:e6:84:9d:30:7c:90:60:ac:ab:ca:
        7b:68:7f:a0:bb:50:2a:9b:bd:62:8b:7a:9b:a2:a4:95:d7:22:
        e3:e4:b4:72:f8:d8:ae:76:48:89:e9:98:75:37:6a:e9:9b:b7:
        d3:0f:6b:4c:df:02:cd:3f:16:13:be:80:76:f8:4f:cc:24:9f:
        00:8e:bd:12:60:d3:f8:fd:e0:f9:72:a1:1b:4d:15:13:07:4f:
        5c:14:76:92:10:f5:1c:34:de:45:b7:68:69:b8:8a:0c:dc:35:
        89:a8:b4:d8:f7:7c:04:05:0e:6e:0c:9b:b9:36:ea:30:13:d9:
        f9:c5:23:ef:09:55:ea:36:4b:11:17:0d:1a:f6:fd:ea:e0:e2:
        e3:01:85:29:d6:ad:7f:f5:bc:56:3e:e8:46:8d:c1:a2:44:35:
        53:79:af:0f:a0:70:ba:39:e8:9d:e5:9d:69:91:2b:45:29:a9:
        57:e9:78:51:0f:1c:17:6b:0b:1f:8b:66:69:83:1c:f3:1d:b6:
        94:2c:70:d1:3e:5c:6e:52
-----BEGIN CERTIFICATE-----
MIIFtjCCA56gAwIBAgIUQiB0yF8zXkyEcr9UcjFJNg//LDcwDQYJKoZIhvcNAQEL
BQAwUDELMAkGA1UEBhMCQlIxCzAJBgNVBAgMAlNDMRYwFAYDVQQHDA1GbG9yaWFu
b3BvbGlzMQ0wCwYDVQQKDARVRlNDMQ0wCwYDVQQDDARSYXRvMCAXDTExMTExMTA5
MTExMVoYDzIwNjkxMTExMDkxMTExWjBQMQswCQYDVQQGEwJCUjELMAkGA1UECAwC
U0MxFjAUBgNVBAcMDUZsb3JpYW5vcG9saXMxDTALBgNVBAoMBFVGU0MxDTALBgNV
BAMMBFJhdG8wggIiMA0GCSqGSIb3DQEBAQUAA4ICDwAwggIKAoICAQDINbMtvSFu
1Fo6uH1+AIyi8w4o8zMlmwSj/sCcFrOQx/Xe4lzgfCKxT6M9dlT8q5Jst1x3zQcs
E5/jj//h6OOZ0TATMHuppDuaHMfnU+VCMDFpaBTxUT9ZXMfOv93DNWxp7LBLIPB6
G8ftcq1GurmdGogX08xNMoEL9fZoisIRbrx97G8P0XIRU5PuSBXb4JfuJz3+ScsM
RoLysLADEyr8zaLTldeEESqUUXHJVNm9DPge7++PURxC649y5+aZTS6gs7vwg8Lj
+eNdhi5qacIL43yIfGM8dh/8/JHiHdyCPlEJxuJkL+DTq0yS9RUWqtkOIv2+BflB
91N02LTL9UF0PoS2AbboM4qhfYhMqwTGgA37T0aeq8C/1PsrU8pmiM+vUopaKuqW
7Ri5sbupcO//ea9mFq20R69dnT83SjcSU7a3zlFwftiSwGK0q7aW5/iMKefi+fTh
Qkw+x/2RK8VYi+9gP4NbM0833SZMQwbwK/eKDhu84kRrgye94x0aew3k8R7a/Mgk
zFk0pezOA/XdJxrUcCiGxeq1Jadev9BEcmJICPQsy7Z7x0Tt9364fLL/0PJcN67W
IzCNKQsrT4iAx1eUU6KCgng0V96AEG2MUR0r24sr4IqeE4DAB4CC+3EfP+WGBmfM
JFTRQminFCwJ8EL1u3Eyql5dbm3YGIsUYwIDAQABo4GFMIGCMEUGCCoDBAUGBwgJ
BDkMN2h0dHBzOi8vcGJhZC5sYWJzZWMudWZzYy5ici9jYXRjaC1tZS1pZi15b3Ut
Y2FuL21lLmpwZWcwGgYIMAkGBQQDAgEEDgwMTm9ybWEgRmlzaGVyMB0GA1UdDgQW
BBQl0opbpYIKNQ/jLevY8cPTjzhmfzANBgkqhkiG9w0BAQsFAAOCAgEATSY0Bnys
xM1TbakI0qokQfmL+96U8upVZzBqCS7La2HuxDeknEleBFj/pzNKpeY2i+f3i1fc
UbfkAxIBolsXhypNly2ufTIQPXgOvLP60lMKQ2nMZnn8osI7FLo0DIx0YT6hYVEe
bOVHWnM9wkuV26la+xHfk0njFoT4h+cSUPgditzzi7qcPrTQ2vAj0AwwCbIBa3lN
gqRSpTX5z+QmfCOlgdekg5QOtvXlLCg4nKqkVMgwfpZmF3kLuZSD7xlibIdKf4bo
pr9Pz9ye8mLFUoALF3G+2MWBvOGyuht1gbQeAhKtWq8z9rG57PN+WzbmzTxLonZ9
9FjWa0J+7prketdE6XdBfDmtMwa45rHKqNhumMkkarAx0YOvMdfc74Dr7JBy+upP
snuTgt8mAhV1uu/ZUELBVdXogIXmhJ0wfJBgrKvKe2h/oLtQKpu9Yot6m6Kkldci
4+S0cvjYrnZIiemYdTdq6Zu30w9rTN8CzT8WE76AdvhPzCSfAI69EmDT+P3g+XKh
G00VEwdPXBR2khD1HDTeRbdoabiKDNw1iai02Pd8BAUObgybuTbqMBPZ+cUj7wlV
6jZLERcNGvb96uDi4wGFKdatf/W8Vj7oRo3BokQ1U3mvD6BwujnoneWdaZErRSmp
V+l4UQ8cF2sLH4tmaYMc8x22lCxw0T5cblI=
-----END CERTIFICATE-----
